(dp0
S'unimaginative'
p1
F2.1333333333333333
sS'azaria'
p2
F1.12
sS'pointing'
p3
F1.3866666666666667
sS'madsen'
p4
F1.2533333333333334
sS'astronauts'
p5
F1.4133333333333333
sS'fairness'
p6
F2.1333333333333333
sS'poorly'
p7
F2.346666666666667
sS'stinks'
p8
F2.32
sS'tremors'
p9
F1.2533333333333334
sS'pen'
p10
F1.4133333333333333
sS'compensate'
p11
F2.1333333333333333
sS'whatsoever'
p12
F1.3866666666666667
sS'beware'
p13
F1.4133333333333333
sS'overwrought'
p14
F1.7866666666666666
sS'patently'
p15
F1.6
sS'sloppy'
p16
F1.5466666666666666
sS'worst'
p17
F1.3599999999999999
sS'advised'
p18
F1.4933333333333334
sS'awful'
p19
F1.6266666666666667
sS'homicidal'
p20
F1.4133333333333333
sS'incoherent'
p21
F2.32
sS'excruciating'
p22
F1.4133333333333333
sS'clothed'
p23
F1.2533333333333334
sS'coincidences'
p24
F1.3866666666666667
sS'subway'
p25
F1.3866666666666667
sS'charlize'
p26
F1.1733333333333336
sS'diverting'
p27
F1.2533333333333334
sS'wrestling'
p28
F1.1466666666666667
sS'zero'
p29
F1.2533333333333334
sS'clich'
p30
F1.2
sS'reconciliation'
p31
F1.4133333333333333
sS'illogical'
p32
F2.32
sS'filler'
p33
F1.28
sS'reunite'
p34
F1.2533333333333334
sS'anywhere'
p35
F1.2
sS'med'
p36
F1.2533333333333334
sS'angelina'
p37
F1.4933333333333334
sS'bruckheimer'
p38
F1.6
sS'fluke'
p39
F1.4133333333333333
sS'gunton'
p40
F1.4133333333333333
sS'unwatchable'
p41
F1.2266666666666666
sS'cindy'
p42
F1.2533333333333334
sS'schumacher'
p43
F2.6666666666666665
sS'existent'
p44
F1.28
sS'studi'
p45
F1.2533333333333334
sS'unintentional'
p46
F1.1466666666666667
sS'useful'
p47
F1.1733333333333336
sS'clark'
p48
F1.4933333333333334
sS'forbid'
p49
F1.2533333333333334
sS'marginal'
p50
F1.6
sS'julie'
p51
F1.2
sS'atrocious'
p52
F1.6
sS'gimmick'
p53
F2.4800000000000004
sS'dna'
p54
F1.2533333333333334
sS'plastered'
p55
F1.2533333333333334
sS'insult'
p56
F1.2266666666666666
sS'slaughtered'
p57
F1.4133333333333333
sS'domination'
p58
F1.2533333333333334
sS'coyote'
p59
F1.6
sS'goofiness'
p60
F1.4133333333333333
sS'presumed'
p61
F1.2533333333333334
sS'tokyo'
p62
F1.2533333333333334
sS'unexciting'
p63
F1.1733333333333336
sS'sucks'
p64
F2.346666666666667
sS'ineffectual'
p65
F1.4133333333333333
sS'wrestler'
p66
F1.2533333333333334
sS'embarrassing'
p67
F1.4133333333333333
sS'indie'
p68
F1.2266666666666666
sS'rubell'
p69
F1.2533333333333334
sS'summers'
p70
F1.4133333333333333
sS'dazzle'
p71
F1.4133333333333333
sS'orson'
p72
F1.6
sS'noises'
p73
F1.4133333333333333
sS'stupidity'
p74
F1.8933333333333333
sS'mugging'
p75
F1.2533333333333334
sS'economy'
p76
F1.1733333333333336
sS'contraption'
p77
F1.4133333333333333
sS'badly'
p78
F1.1466666666666667
sS'plant'
p79
F1.2266666666666666
sS'fever'
p80
F1.28
sS'mess'
p81
F1.3333333333333333
sS'bothered'
p82
F2.4800000000000004
sS'fart'
p83
F1.3866666666666667
sS'uninspired'
p84
F1.4133333333333333
sS'unoriginal'
p85
F1.6
sS'backyard'
p86
F1.2533333333333334
sS'capitalize'
p87
F1.1733333333333336
sS'omen'
p88
F1.2533333333333334
sS'lame'
p89
F1.8933333333333333
sS'atrocity'
p90
F1.4133333333333333
sS'nonsensical'
p91
F1.2533333333333334
sS'frankenheimer'
p92
F1.4133333333333333
sS'stamped'
p93
F1.2533333333333334
sS'annoyingly'
p94
F1.4133333333333333
sS'clumsily'
p95
F1.4133333333333333
sS'pray'
p96
F1.6
sS'suvari'
p97
F1.7866666666666666
sS'awfulness'
p98
F1.2533333333333334
sS'thieves'
p99
F1.7866666666666666
sS'damme'
p100
F1.2266666666666666
sS'undermines'
p101
F1.4133333333333333
sS'lambert'
p102
F1.4133333333333333
sS'predator'
p103
F1.4133333333333333
sS'unimpressive'
p104
F1.4133333333333333
sS'flee'
p105
F1.2533333333333334
sS'sans'
p106
F2.32
sS'fisherman'
p107
F1.1466666666666667
sS'uninteresting'
p108
F1.1466666666666667
sS'goldsman'
p109
F1.4133333333333333
sS'eh'
p110
F2.32
sS'kang'
p111
F1.2533333333333334
sS'crushing'
p112
F1.2533333333333334
sS'wires'
p113
F1.6
sS'forgot'
p114
F1.6
sS'scratching'
p115
F1.4133333333333333
sS'slew'
p116
F1.28
sS'whip'
p117
F1.2533333333333334
sS'goo'
p118
F2.4800000000000004
sS'whining'
p119
F1.9466666666666668
sS'modine'
p120
F1.4133333333333333
sS'plods'
p121
F1.4133333333333333
sS'collaborated'
p122
F1.2533333333333334
sS'fx'
p123
F1.4133333333333333
sS'sustain'
p124
F1.1733333333333336
sS'medicine'
p125
F1.1733333333333336
sS'lecture'
p126
F1.1733333333333336
sS'prinze'
p127
F1.8133333333333332
sS'crotch'
p128
F1.1733333333333336
sS'barrier'
p129
F1.2533333333333334
sS'promptly'
p130
F1.4133333333333333
sS'laughable'
p131
F1.1733333333333336
sS'universally'
p132
F1.2533333333333334
sS'dunne'
p133
F1.6
sS'maniac'
p134
F1.3866666666666667
sS'ritual'
p135
F1.28
sS'terrible'
p136
F1.3333333333333333
sS'terribly'
p137
F1.2
sS'jumbled'
p138
F1.4133333333333333
sS'warden'
p139
F1.1733333333333336
sS'grade'
p140
F1.6
sS'bland'
p141
F1.28
sS'olds'
p142
F1.1733333333333336
sS'moderately'
p143
F1.4933333333333334
sS'bahamas'
p144
F1.2533333333333334
sS'jingle'
p145
F1.2533333333333334
sS'badness'
p146
F1.6
sS'painful'
p147
F1.1466666666666667
sS'headache'
p148
F2.4800000000000004
sS'mining'
p149
F1.3066666666666669
sS'huh'
p150
F1.2266666666666666
sS'ridiculous'
p151
F1.7333333333333334
sS'wasted'
p152
F2.2933333333333334
sS'carnage'
p153
F1.1466666666666667
sS'peril'
p154
F1.4133333333333333
sS'frankly'
p155
F1.1733333333333336
sS'boring'
p156
F1.2533333333333334
sS'bother'
p157
F1.3866666666666667
sS'knives'
p158
F1.4133333333333333
sS'spoiled'
p159
F1.52
sS'beard'
p160
F1.6
sS'deciding'
p161
F1.1733333333333336
sS'register'
p162
F2.4800000000000004
sS'preston'
p163
F1.9466666666666668
sS'juice'
p164
F1.4133333333333333
sS'uninvolving'
p165
F1.6
sS'relic'
p166
F1.2533333333333334
sS'sat'
p167
F1.4133333333333333
sS'unbearable'
p168
F2.8533333333333335
sS'wcw'
p169
F1.2533333333333334
sS'chuckle'
p170
F1.52
sS'martha'
p171
F1.28
sS'liz'
p172
F1.6
sS'dalmatians'
p173
F1.4133333333333333
sS'exec'
p174
F1.6
sS'screwing'
p175
F1.4133333333333333
sS'freddie'
p176
F1.92
sS'boiling'
p177
F1.2533333333333334
sS'barrage'
p178
F1.9466666666666668
sS'opted'
p179
F1.2533333333333334
sS'macpherson'
p180
F1.4133333333333333
sS'atomic'
p181
F1.2533333333333334
sS'jolie'
p182
F1.6
sS'sporadically'
p183
F1.1733333333333336
sS'guinea'
p184
F1.6
sS'mating'
p185
F1.4133333333333333
sS'renting'
p186
F1.1733333333333336
sS'stoner'
p187
F1.4133333333333333
sS'ugh'
p188
F1.1733333333333336
sS'random'
p189
F1.9466666666666668
sS'sexist'
p190
F1.7866666666666666
sS'heckerling'
p191
F1.2533333333333334
sS'sharks'
p192
F1.2533333333333334
sS'painfully'
p193
F1.3599999999999999
sS'idiots'
p194
F1.4933333333333334
sS'mena'
p195
F1.7866666666666666
sS'monica'
p196
F1.1733333333333336
sS'cube'
p197
F1.4133333333333333
sS'wilcock'
p198
F1.4133333333333333
sS'alicia'
p199
F2.8533333333333335
sS'preferred'
p200
F1.2533333333333334
sS'goons'
p201
F1.3866666666666667
sS'revered'
p202
F1.4133333333333333
sS'kidnaps'
p203
F1.4133333333333333
sS'interminable'
p204
F1.4133333333333333
sS'sailing'
p205
F1.28
sS'trucks'
p206
F1.2533333333333334
sS'idiotic'
p207
F1.7866666666666666
sS'stupid'
p208
F1.1466666666666667
sS'worrying'
p209
F1.6
sS'thumbs'
p210
F1.28
sS'btw'
p211
F1.2533333333333334
sS'miserably'
p212
F2.1333333333333333
sS'mcgowan'
p213
F1.4933333333333334
sS'leslie'
p214
F1.4933333333333334
sS'chambers'
p215
F1.6
sS'magoo'
p216
F1.2533333333333334
sS'welles'
p217
F2.1333333333333333
sS'insulting'
p218
F3.92
sS'jumped'
p219
F1.2533333333333334
sS'farley'
p220
F1.4133333333333333
sS'sorely'
p221
F1.3866666666666667
sS'embarrassment'
p222
F1.7066666666666668
sS'hokum'
p223
F1.2533333333333334
sS'coma'
p224
F1.6
sS'carbon'
p225
F1.4133333333333333
sS'swift'
p226
F1.2533333333333334
sS'schaech'
p227
F1.2533333333333334
sS'priests'
p228
F1.2533333333333334
sS'gimmicks'
p229
F1.4133333333333333
sS'darryl'
p230
F1.2533333333333334
sS'patrons'
p231
F1.1733333333333336
sS'unconvincing'
p232
F1.2
sS'presumably'
p233
F2.1333333333333333
sS'recycling'
p234
F1.2533333333333334
sS'dudes'
p235
F1.1733333333333336
sS'offerings'
p236
F1.2533333333333334
sS'inexplicably'
p237
F1.52
sS'stretched'
p238
F1.1733333333333336
sS'zeta'
p239
F1.3866666666666667
sS'turkey'
p240
F1.7866666666666666
sS'loggia'
p241
F1.2533333333333334
sS'dud'
p242
F1.4933333333333334
sS'hottest'
p243
F1.2533333333333334
sS'waste'
p244
F1.8133333333333332
sS'incompetent'
p245
F1.2266666666666666
sS'ineptitude'
p246
F1.6
sS'sufficient'
p247
F1.2533333333333334
sS'jaded'
p248
F1.4133333333333333
sS'crappy'
p249
F1.9466666666666668
sS'shameless'
p250
F1.9466666666666668
sS'grainy'
p251
F1.28
sS'lizard'
p252
F1.6
sS'hewitt'
p253
F1.7866666666666666
sS'shoddy'
p254
F1.6
sS'lightweight'
p255
F1.28
sS'heels'
p256
F1.1466666666666667
sS'ivy'
p257
F1.9466666666666668
sS'digging'
p258
F1.6
sS'siskel'
p259
F1.2533333333333334
sS'nil'
p260
F1.2533333333333334
sS'assignment'
p261
F1.3599999999999999
sS'nest'
p262
F1.1733333333333336
sS'boo'
p263
F1.2533333333333334
sS'laughably'
p264
F3.013333333333333
sS'rabid'
p265
F1.4133333333333333
sS'robotic'
p266
F1.6
sS'paycheck'
p267
F1.28
sS'werewolf'
p268
F1.4133333333333333
sS'leoni'
p269
F1.2533333333333334
sS'chore'
p270
F1.3866666666666667
sS'theron'
p271
F1.1733333333333336
sS'frankie'
p272
F1.2533333333333334
sS'ludicrous'
p273
F5.866666666666666
sS'fishing'
p274
F1.4933333333333334
sS'biologist'
p275
F1.4133333333333333
sS'amusingly'
p276
F1.4133333333333333
sS'infinitely'
p277
F1.1733333333333336
sS'leto'
p278
F1.2533333333333334
sS'fares'
p279
F1.1466666666666667
sS'furniture'
p280
F1.9466666666666668
sS'warrant'
p281
F1.7066666666666668
sS'careers'
p282
F1.1733333333333336
sS'niece'
p283
F1.1733333333333336
sS'ridiculously'
p284
F1.1733333333333336
sS'bio'
p285
F1.7866666666666666
sS'gregg'
p286
F1.2533333333333334
sS'perfunctory'
p287
F1.9466666666666668
sS'otherworldly'
p288
F1.2533333333333334
sS'presume'
p289
F1.4133333333333333
sS'scantily'
p290
F1.4133333333333333
sS'passable'
p291
F1.28
sS'mod'
p292
F1.2533333333333334
sS'nude'
p293
F1.3599999999999999
sS'oblivion'
p294
F1.2533333333333334
sS'hunk'
p295
F1.2533333333333334
sS'mediocrity'
p296
F1.9466666666666668
sS'hallmark'
p297
F1.2533333333333334
sS'deliverance'
p298
F1.2533333333333334
sS'ronin'
p299
F1.2533333333333334
sS'bore'
p300
F1.28
sS'intellect'
p301
F1.2533333333333334
sS'unfunny'
p302
F1.1466666666666667
sS'leap'
p303
F1.2533333333333334
sS'cradle'
p304
F1.2533333333333334
sS'inject'
p305
F1.3599999999999999
sS'dreck'
p306
F1.6
sS'peel'
p307
F1.4133333333333333
sS'dangling'
p308
F1.28
sS'stereotyped'
p309
F1.4133333333333333
sS'zombie'
p310
F1.1733333333333336
sS'claw'
p311
F1.2533333333333334
sS'bury'
p312
F1.9466666666666668
sS'frenchman'
p313
F1.2533333333333334
sS'aswell'
p314
F1.2533333333333334
sS'eszterhas'
p315
F1.2533333333333334
sS'justin'
p316
F2.1333333333333333
sS'piles'
p317
F1.4133333333333333
sS'yawn'
p318
F1.3866666666666667
sS'lifeless'
p319
F1.44
sS'ounce'
p320
F1.28
sS'sweat'
p321
F1.7866666666666666
sS'islands'
p322
F1.6
sS'miscast'
p323
F1.76
sS'unlikable'
p324
F1.4933333333333334
sS'executives'
p325
F1.1733333333333336
sS'crichton'
p326
F1.2533333333333334
sS'hudson'
p327
F2.4800000000000004
sS'garbage'
p328
F2.0533333333333332
sS'akiva'
p329
F1.4133333333333333
sS'nonsense'
p330
F1.3599999999999999
sS'heated'
p331
F1.2533333333333334
sS'lastly'
p332
F1.4133333333333333
sS'pointless'
p333
F1.28
sS'stare'
p334
F2.1333333333333333
sS'infuriating'
p335
F1.2533333333333334
sS'spiral'
p336
F1.2533333333333334
sS'tame'
p337
F1.2266666666666666
sS'purposely'
p338
F1.6
sS'glib'
p339
F1.2533333333333334
sS'amateur'
p340
F1.9466666666666668
sS'groan'
p341
F1.28
sS'inept'
p342
F1.5466666666666666
sS'volume'
p343
F1.4133333333333333
sS'seagal'
p344
F3.013333333333333
sS'contradictory'
p345
F1.2533333333333334
sS'amateurish'
p346
F1.1466666666666667
sS'dull'
p347
F1.44
sS'tossed'
p348
F1.1733333333333336
sS'rogers'
p349
F1.6
sS'comics'
p350
F1.2533333333333334
sS'uh'
p351
F1.28
sS'excruciatingly'
p352
F2.32
sS'momentarily'
p353
F1.2533333333333334
sS'stigmata'
p354
F1.2533333333333334
sS'guessed'
p355
F1.3066666666666669
sS'graceful'
p356
F1.2533333333333334
sS'kombat'
p357
F1.4933333333333334
sS'credibility'
p358
F1.44
sS'rubber'
p359
F1.6
sS'incomprehensible'
p360
F1.6
sS'illusion'
p361
F1.1733333333333336
sS'muddled'
p362
F1.44
sS'footprints'
p363
F1.2533333333333334
sS'breasts'
p364
F1.4933333333333334
sS'ephron'
p365
F1.2533333333333334
sS'perry'
p366
F1.6
sS'intent'
p367
F1.2
sS'bitchy'
p368
F1.2533333333333334
sS'faster'
p369
F1.2266666666666666
sS'insipid'
p370
F1.4933333333333334
sS'inane'
p371
F2.2933333333333334
sS'nasa'
p372
F1.28
sS'simpson'
p373
F1.4133333333333333
sS'untalented'
p374
F1.2533333333333334
s.