(dp0
S'represent'
p1
F1.2759170653907497
sS'secondly'
p2
F0.9569377990430622
sS'aids'
p3
F0.6858054226475279
sS'hats'
p4
F0.8452950558213717
sS'splitting'
p5
F0.7496012759170654
sS'cheerful'
p6
F0.7655502392344498
sS'controversial'
p7
F0.7496012759170654
sS'settlement'
p8
F0.8452950558213717
sS'integrity'
p9
F1.0685805422647527
sS'empathize'
p10
F0.7496012759170654
sS'subtly'
p11
F0.7496012759170654
sS'venice'
p12
F1.0685805422647527
sS'andrea'
p13
F0.7496012759170654
sS'icons'
p14
F0.7496012759170654
sS'rousing'
p15
F0.8931419457735247
sS'laid'
p16
F0.7017543859649124
sS'passage'
p17
F0.8293460925039873
sS'elias'
p18
F0.7496012759170654
sS'recommended'
p19
F0.7336523125996809
sS'protective'
p20
F0.9569377990430622
sS'fantastic'
p21
F0.7496012759170654
sS'simpsons'
p22
F0.7496012759170654
sS'blockade'
p23
F0.7496012759170654
sS'balancing'
p24
F1.164274322169059
sS'mixing'
p25
F0.6858054226475279
sS'dreamworks'
p26
F0.7655502392344498
sS'sant'
p27
F0.8452950558213717
sS'mesmerizing'
p28
F0.861244019138756
sS'progression'
p29
F0.7496012759170654
sS'amoral'
p30
F0.7496012759170654
sS'beavis'
p31
F0.7496012759170654
sS'loneliness'
p32
F1.0685805422647527
sS'compassionate'
p33
F0.7496012759170654
sS'intricately'
p34
F0.8452950558213717
sS'anxious'
p35
F0.7496012759170654
sS'playwright'
p36
F0.7496012759170654
sS'enhance'
p37
F1.0685805422647527
sS'triumph'
p38
F0.8452950558213717
sS'revolution'
p39
F0.6858054226475279
sS'gripping'
p40
F0.861244019138756
sS'leaders'
p41
F1.164274322169059
sS'insignificant'
p42
F0.7496012759170654
sS'warns'
p43
F0.7655502392344498
sS'tee'
p44
F0.7496012759170654
sS'perception'
p45
F0.7017543859649124
sS'subtle'
p46
F0.6858054226475279
sS'colourful'
p47
F0.7496012759170654
sS'deliberate'
p48
F1.164274322169059
sS'assisted'
p49
F1.164274322169059
sS'favour'
p50
F0.9569377990430622
sS'expressed'
p51
F0.6858054226475279
sS'overwhelmed'
p52
F0.8452950558213717
sS'jedi'
p53
F0.7814992025518342
sS'issues'
p54
F0.6858054226475279
sS'tribute'
p55
F1.0845295055821371
sS'increasing'
p56
F0.9569377990430622
sS'shocks'
p57
F0.8452950558213717
sS'opposition'
p58
F1.38755980861244
sS'maintains'
p59
F0.9090909090909091
sS'notions'
p60
F0.8452950558213717
sS'respectively'
p61
F0.8771929824561403
sS'vet'
p62
F0.7496012759170654
sS'understanding'
p63
F0.7336523125996809
sS'behaviour'
p64
F1.164274322169059
sS'poverty'
p65
F0.8452950558213717
sS'fulfill'
p66
F0.6858054226475279
sS'hers'
p67
F1.594896331738437
sS'darkly'
p68
F0.7017543859649124
sS'fourteen'
p69
F0.7496012759170654
sS'kudos'
p70
F0.8293460925039873
sS'naval'
p71
F0.8293460925039873
sS'cohesive'
p72
F0.7496012759170654
sS'allows'
p73
F0.6858054226475279
sS'reports'
p74
F0.8293460925039873
sS'published'
p75
F0.7496012759170654
sS'priceless'
p76
F1.164274322169059
sS'narrow'
p77
F0.7655502392344498
sS'studies'
p78
F1.38755980861244
sS'spoil'
p79
F0.6698564593301436
sS'breathtaking'
p80
F2.041467304625199
sS'tasks'
p81
F0.7496012759170654
sS'addresses'
p82
F1.4832535885167466
sS'transcend'
p83
F0.9569377990430622
sS'marvelous'
p84
F1.4035087719298247
sS'paralyzed'
p85
F0.8452950558213717
sS'composer'
p86
F0.7496012759170654
sS'quits'
p87
F0.8452950558213717
sS'boasts'
p88
F0.7017543859649124
sS'devastation'
p89
F0.8452950558213717
sS'catchy'
p90
F0.6858054226475279
sS'seamless'
p91
F1.594896331738437
sS'depicted'
p92
F1.0207336523125996
sS'splash'
p93
F0.8452950558213717
sS'wonderfully'
p94
F2.280701754385965
sS'debbie'
p95
F0.8452950558213717
sS'agreeable'
p96
F0.7496012759170654
sS'harrowing'
p97
F0.8293460925039873
sS'pixar'
p98
F0.7496012759170654
sS'shine'
p99
F0.7177033492822966
sS'entrance'
p100
F0.7336523125996809
sS'afford'
p101
F0.7496012759170654
sS'tested'
p102
F0.7496012759170654
sS'berlin'
p103
F0.7496012759170654
sS'grisly'
p104
F0.9569377990430622
sS'excellent'
p105
F0.6858054226475279
sS'behalf'
p106
F0.9569377990430622
sS'cunning'
p107
F1.0685805422647527
sS'depiction'
p108
F1.0207336523125996
sS'judi'
p109
F0.8452950558213717
sS'phillip'
p110
F0.8452950558213717
sS'thematically'
p111
F0.9569377990430622
sS'jude'
p112
F0.7496012759170654
sS'labeled'
p113
F0.8452950558213717
sS'vega'
p114
F0.7017543859649124
sS'era'
p115
F0.7814992025518342
sS'akin'
p116
F0.7496012759170654
sS'stimulating'
p117
F0.7017543859649124
sS'lighthearted'
p118
F1.0845295055821371
sS'admired'
p119
F0.8931419457735247
sS'links'
p120
F0.7496012759170654
sS'downfall'
p121
F0.8452950558213717
sS'chip'
p122
F0.8452950558213717
sS'tad'
p123
F0.7814992025518342
sS'stroke'
p124
F0.8293460925039873
sS'performed'
p125
F0.7496012759170654
sS'employs'
p126
F0.7655502392344498
sS'vulnerability'
p127
F0.6858054226475279
sS'sought'
p128
F0.9569377990430622
sS'unforgettable'
p129
F0.8133971291866028
sS'ceremony'
p130
F0.9569377990430622
sS'influenced'
p131
F0.6858054226475279
sS'flawless'
p132
F0.8452950558213717
sS'fortunately'
p133
F0.7496012759170654
sS'mpaa'
p134
F1.0685805422647527
sS'anakin'
p135
F0.7655502392344498
sS'strikingly'
p136
F0.9569377990430622
sS'located'
p137
F0.8452950558213717
sS'sacred'
p138
F0.8452950558213717
sS'sid'
p139
F1.0685805422647527
sS'ordinary'
p140
F0.8293460925039873
sS'pizza'
p141
F0.7496012759170654
sS'poker'
p142
F0.9569377990430622
sS'designer'
p143
F0.9250398724082934
sS'explores'
p144
F1.0047846889952152
sS'immersed'
p145
F0.7496012759170654
sS'weaknesses'
p146
F1.0685805422647527
sS'questioning'
p147
F0.6858054226475279
sS'consequence'
p148
F0.7496012759170654
sS'heartbreaking'
p149
F0.7017543859649124
sS'turturro'
p150
F0.8931419457735247
sS'destined'
p151
F0.9569377990430622
sS'fits'
p152
F1.1323763955342903
sS'spelling'
p153
F0.7496012759170654
sS'chums'
p154
F0.7496012759170654
sS'nomination'
p155
F0.7496012759170654
sS'gregory'
p156
F0.7017543859649124
sS'stress'
p157
F0.6858054226475279
sS'jodie'
p158
F0.7017543859649124
sS'effective'
p159
F0.7336523125996809
sS'crowded'
p160
F0.8452950558213717
sS'departure'
p161
F0.7336523125996809
sS'cinque'
p162
F0.7496012759170654
sS'backwoods'
p163
F0.7496012759170654
sS'laurie'
p164
F0.8293460925039873
sS'dread'
p165
F1.38755980861244
sS'crawling'
p166
F0.8452950558213717
sS'operate'
p167
F0.7496012759170654
sS'idiosyncratic'
p168
F0.7496012759170654
sS'tribulations'
p169
F0.8452950558213717
sS'interpretation'
p170
F0.8133971291866028
sS'reservoir'
p171
F0.6858054226475279
sS'pointed'
p172
F0.7496012759170654
sS'flips'
p173
F0.7496012759170654
sS'rebellious'
p174
F0.7017543859649124
sS'argues'
p175
F0.9569377990430622
sS'symbols'
p176
F1.164274322169059
sS'perceptive'
p177
F0.8452950558213717
sS'dismissed'
p178
F0.8452950558213717
sS'fable'
p179
F0.7336523125996809
sS'argued'
p180
F0.8452950558213717
sS'birds'
p181
F0.8293460925039873
sS'admirably'
p182
F0.7017543859649124
sS'recreating'
p183
F0.7496012759170654
sS'solving'
p184
F0.7496012759170654
sS'troubles'
p185
F0.7814992025518342
sS'denver'
p186
F0.7655502392344498
sS'platform'
p187
F0.7496012759170654
sS'primal'
p188
F0.8293460925039873
sS'policy'
p189
F1.164274322169059
sS'puerto'
p190
F0.7496012759170654
sS'versus'
p191
F0.6858054226475279
sS'closure'
p192
F0.8293460925039873
sS'matches'
p193
F0.8931419457735247
sS'weakness'
p194
F1.0685805422647527
sS'socially'
p195
F1.0685805422647527
sS'tucker'
p196
F1.594896331738437
sS'avoids'
p197
F1.4832535885167466
sS'snowball'
p198
F0.7496012759170654
sS'hamilton'
p199
F0.8452950558213717
sS'adventurous'
p200
F0.8452950558213717
sS'successor'
p201
F0.7496012759170654
sS'worlds'
p202
F0.7017543859649124
sS'hereafter'
p203
F1.0685805422647527
sS'accompanies'
p204
F0.8452950558213717
sS'delightful'
p205
F0.7814992025518342
sS'positions'
p206
F0.7496012759170654
sS'friendship'
p207
F0.8452950558213717
sS'exquisite'
p208
F1.38755980861244
sS'lofty'
p209
F0.7017543859649124
sS'upstairs'
p210
F0.7496012759170654
sS'celebrating'
p211
F0.9569377990430622
sS'authenticity'
p212
F0.9569377990430622
sS'dench'
p213
F0.8452950558213717
sS'flock'
p214
F1.0685805422647527
sS'insurance'
p215
F0.7655502392344498
sS'gon'
p216
F0.7655502392344498
sS'julianne'
p217
F0.6858054226475279
sS'factors'
p218
F0.7017543859649124
sS'profit'
p219
F0.6858054226475279
sS'vcr'
p220
F0.7496012759170654
sS'longtime'
p221
F0.6858054226475279
sS'supports'
p222
F0.8452950558213717
sS'gardener'
p223
F0.7496012759170654
sS'nervously'
p224
F0.8452950558213717
sS'philosophy'
p225
F0.7017543859649124
sS'sparked'
p226
F1.0685805422647527
sS'coen'
p227
F0.7336523125996809
sS'admits'
p228
F0.8293460925039873
sS'extraordinary'
p229
F0.7177033492822966
sS'advantages'
p230
F0.7496012759170654
sS'advisor'
p231
F0.8452950558213717
sS'qui'
p232
F0.7655502392344498
sS'nightmarish'
p233
F0.9569377990430622
sS'attendant'
p234
F0.7655502392344498
sS'revolutionary'
p235
F0.7655502392344498
sS'surrealistic'
p236
F1.164274322169059
sS'yard'
p237
F0.7017543859649124
sS'keen'
p238
F1.2759170653907497
sS'prejudice'
p239
F0.7496012759170654
sS'testament'
p240
F1.1483253588516746
sS'biting'
p241
F0.7017543859649124
sS'castle'
p242
F1.1483253588516746
sS'finest'
p243
F2.4242424242424243
sS'radical'
p244
F1.164274322169059
sS'reflected'
p245
F0.7496012759170654
sS'rank'
p246
F0.9569377990430622
sS'jesus'
p247
F0.7017543859649124
sS'introspective'
p248
F0.8452950558213717
sS'delicious'
p249
F0.7017543859649124
sS'clarity'
p250
F0.7017543859649124
sS'cheerfully'
p251
F0.7496012759170654
sS'accomplishes'
p252
F0.9569377990430622
sS'fuller'
p253
F0.7017543859649124
sS'district'
p254
F0.8452950558213717
sS'denying'
p255
F0.7336523125996809
sS'observations'
p256
F1.0207336523125996
sS'misunderstood'
p257
F0.7496012759170654
sS'seymour'
p258
F0.7496012759170654
sS'tool'
p259
F0.8293460925039873
sS'sensation'
p260
F0.7017543859649124
sS'stylized'
p261
F0.8293460925039873
sS'appreciation'
p262
F0.8452950558213717
sS'regards'
p263
F0.9569377990430622
sS'enigma'
p264
F0.7496012759170654
sS'manipulation'
p265
F0.8293460925039873
sS'apprentice'
p266
F0.7655502392344498
sS'boarding'
p267
F0.8452950558213717
sS'nathan'
p268
F0.7496012759170654
sS'glorified'
p269
F0.9569377990430622
sS'browning'
p270
F0.9569377990430622
sS'infectious'
p271
F0.7017543859649124
sS'optimism'
p272
F0.8452950558213717
sS'rarity'
p273
F0.7496012759170654
sS'coats'
p274
F0.8452950558213717
sS'knights'
p275
F0.6858054226475279
sS'seamlessly'
p276
F0.7496012759170654
sS'imaginative'
p277
F0.8452950558213717
sS'skarsgard'
p278
F0.8452950558213717
sS'nominee'
p279
F0.8452950558213717
sS'outstanding'
p280
F1.9457735247208932
sS'beforehand'
p281
F0.8452950558213717
sS'gently'
p282
F0.8452950558213717
sS'tide'
p283
F0.7496012759170654
sS'redford'
p284
F0.8452950558213717
sS'elmore'
p285
F1.0685805422647527
sS'alike'
p286
F0.7336523125996809
sS'refreshingly'
p287
F1.164274322169059
sS'anger'
p288
F0.988835725677831
sS'concentration'
p289
F0.7655502392344498
sS'fading'
p290
F0.8452950558213717
sS'vulnerable'
p291
F1.0047846889952152
sS'sings'
p292
F0.7814992025518342
sS'patterns'
p293
F0.7655502392344498
sS'cope'
p294
F0.7017543859649124
sS'mills'
p295
F0.8452950558213717
sS'ably'
p296
F0.9569377990430622
sS'ideal'
p297
F0.7655502392344498
sS'derek'
p298
F0.7655502392344498
sS'strengths'
p299
F0.7655502392344498
sS'foreman'
p300
F0.7496012759170654
sS'topping'
p301
F0.7496012759170654
sS'bravura'
p302
F0.7496012759170654
sS'indelible'
p303
F0.8452950558213717
sS'montana'
p304
F0.9569377990430622
sS'moss'
p305
F0.9569377990430622
sS'commanding'
p306
F0.7496012759170654
sS'contrasts'
p307
F0.7496012759170654
sS'seasons'
p308
F1.0685805422647527
sS'tracy'
p309
F1.2759170653907497
sS'animators'
p310
F0.8931419457735247
sS'understands'
p311
F0.7814992025518342
sS'refreshing'
p312
F0.988835725677831
sS'consequences'
p313
F0.7177033492822966
sS'mobile'
p314
F0.9569377990430622
sS'eachother'
p315
F0.9569377990430622
sS'devastating'
p316
F0.8293460925039873
sS'steady'
p317
F0.8293460925039873
sS'sale'
p318
F0.8452950558213717
sS'drifts'
p319
F0.7496012759170654
sS'muted'
p320
F0.7496012759170654
sS'reflecting'
p321
F0.7496012759170654
sS'notch'
p322
F0.7655502392344498
sS'blend'
p323
F0.7017543859649124
sS'kristen'
p324
F0.7496012759170654
sS'incorporate'
p325
F0.7496012759170654
sS'rebels'
p326
F0.8452950558213717
sS'rambling'
p327
F0.7496012759170654
sS'german'
p328
F1.1323763955342903
sS'brilliance'
p329
F0.7017543859649124
sS'vader'
p330
F0.9569377990430622
sS'colors'
p331
F1.0685805422647527
sS'spaces'
p332
F0.7655502392344498
sS'dorothy'
p333
F0.7496012759170654
sS'spacey'
p334
F0.7496012759170654
sS'feat'
p335
F0.6858054226475279
sS'debate'
p336
F0.861244019138756
sS'hustler'
p337
F0.8452950558213717
sS'occupation'
p338
F0.7496012759170654
sS'zahn'
p339
F0.7496012759170654
sS'gutsy'
p340
F0.7496012759170654
sS'piano'
p341
F1.38755980861244
sS'boyle'
p342
F0.6858054226475279
sS'nuances'
p343
F0.7496012759170654
sS'regularly'
p344
F1.0685805422647527
sS'exceptional'
p345
F0.9250398724082934
sS'jazz'
p346
F0.7336523125996809
sS'courage'
p347
F0.7017543859649124
sS'satirical'
p348
F0.7017543859649124
sS'earl'
p349
F1.0685805422647527
sS'contributes'
p350
F0.7655502392344498
sS'pleasantville'
p351
F0.8452950558213717
sS'brendan'
p352
F1.164274322169059
sS'dramas'
p353
F0.8133971291866028
sS'terrifically'
p354
F0.9569377990430622
sS'gears'
p355
F0.7496012759170654
sS'transforms'
p356
F1.0685805422647527
sS'cinematically'
p357
F0.8452950558213717
sS'pfeiffer'
p358
F0.7496012759170654
sS'observes'
p359
F1.164274322169059
sS'encourages'
p360
F0.7496012759170654
sS'replies'
p361
F0.7017543859649124
sS'operates'
p362
F0.7496012759170654
sS'observed'
p363
F0.7017543859649124
sS'edition'
p364
F0.7336523125996809
sS'officials'
p365
F0.7655502392344498
sS'tackles'
p366
F0.9569377990430622
sS'overboard'
p367
F0.8452950558213717
sS'humane'
p368
F0.8452950558213717
sS'satisfying'
p369
F0.9409888357256778
sS'visiting'
p370
F0.6698564593301436
sS'vignettes'
p371
F0.9569377990430622
sS'superb'
p372
F0.7496012759170654
sS'narrates'
p373
F0.9569377990430622
sS'affecting'
p374
F1.0845295055821371
sS'tones'
p375
F0.6858054226475279
sS'weary'
p376
F0.6698564593301436
sS'unfold'
p377
F0.8931419457735247
sS'dedication'
p378
F1.0685805422647527
sS'adapting'
p379
F0.8452950558213717
sS'drum'
p380
F0.7496012759170654
sS'voyeuristic'
p381
F0.7496012759170654
sS'annual'
p382
F1.0685805422647527
sS'riddled'
p383
F0.8452950558213717
sS'layered'
p384
F1.164274322169059
sS'similarities'
p385
F0.8293460925039873
sS'installments'
p386
F0.8452950558213717
sS'contribution'
p387
F0.9569377990430622
sS'groundhog'
p388
F0.8452950558213717
sS'elliot'
p389
F0.9569377990430622
sS'foreboding'
p390
F0.7655502392344498
sS'period'
p391
F0.8133971291866028
sS'wen'
p392
F0.7496012759170654
sS'singers'
p393
F0.7496012759170654
sS'crafted'
p394
F0.7496012759170654
sS'supervisor'
p395
F0.7496012759170654
sS'kenobi'
p396
F0.9569377990430622
sS'tuning'
p397
F0.7496012759170654
sS'tremendous'
p398
F0.7177033492822966
sS'acceptance'
p399
F0.6858054226475279
sS'storyteller'
p400
F0.7496012759170654
sS'submarine'
p401
F0.7496012759170654
sS'stylishly'
p402
F0.8452950558213717
sS'startled'
p403
F0.7496012759170654
sS'peaceful'
p404
F0.7496012759170654
sS'curtain'
p405
F0.7496012759170654
sS'delights'
p406
F0.7017543859649124
sS'kathy'
p407
F0.7336523125996809
sS'affectionate'
p408
F0.8452950558213717
sS'squirrel'
p409
F0.7496012759170654
sS'storylines'
p410
F1.164274322169059
sS'observe'
p411
F0.7017543859649124
sS'representative'
p412
F0.7496012759170654
sS'doubts'
p413
F0.8931419457735247
sS'superstar'
p414
F0.7017543859649124
sS'squabbles'
p415
F0.7496012759170654
sS'hamill'
p416
F0.7496012759170654
sS'uplifting'
p417
F0.8931419457735247
sS'homer'
p418
F0.9569377990430622
sS'fearful'
p419
F0.8452950558213717
sS'neal'
p420
F0.9569377990430622
sS'offbeat'
p421
F0.9569377990430622
sS'owns'
p422
F0.7814992025518342
sS'scum'
p423
F1.164274322169059
sS'balance'
p424
F0.8133971291866028
sS'chilling'
p425
F0.861244019138756
sS'uncertainty'
p426
F0.8452950558213717
sS'ripe'
p427
F0.7017543859649124
sS'sincere'
p428
F1.1483253588516746
sS'customers'
p429
F0.8293460925039873
sS'encountered'
p430
F0.7496012759170654
sS'obstacle'
p431
F0.8452950558213717
sS'owes'
p432
F1.0207336523125996
sS'beautifully'
p433
F1.4992025518341308
sS'facade'
p434
F0.7017543859649124
sS'everyday'
p435
F0.8931419457735247
sS'goodfellas'
p436
F0.7017543859649124
sS'denial'
p437
F1.2759170653907497
sS'windsor'
p438
F0.8452950558213717
sS'bancroft'
p439
F0.7496012759170654
sS'subtitled'
p440
F0.9569377990430622
sS'damon'
p441
F1.1323763955342903
sS'reminder'
p442
F1.164274322169059
sS'deft'
p443
F1.164274322169059
sS'yesterday'
p444
F0.7496012759170654
sS'flows'
p445
F0.7017543859649124
sS'harris'
p446
F0.7814992025518342
sS'feds'
p447
F0.8452950558213717
sS'workings'
p448
F0.7496012759170654
sS'palpable'
p449
F1.0207336523125996
sS'lobby'
p450
F0.7496012759170654
sS'butter'
p451
F0.7496012759170654
sS'underneath'
p452
F0.861244019138756
sS'liberal'
p453
F0.7496012759170654
sS'cronenberg'
p454
F0.7655502392344498
sS'exceedingly'
p455
F0.7655502392344498
sS'components'
p456
F0.8452950558213717
sS'landmark'
p457
F0.7496012759170654
sS'hearts'
p458
F0.7336523125996809
sS'camps'
p459
F0.9569377990430622
sS'weakest'
p460
F1.2759170653907497
sS'taxi'
p461
F1.594896331738437
sS'edwards'
p462
F0.7496012759170654
sS'enormously'
p463
F0.9569377990430622
sS'noah'
p464
F1.0685805422647527
sS'captures'
p465
F1.9138755980861244
sS'obtain'
p466
F0.7655502392344498
sS'nicknamed'
p467
F0.9569377990430622
sS'farther'
p468
F1.38755980861244
sS'polley'
p469
F0.8452950558213717
sS'portrayed'
p470
F0.6698564593301436
sS'lebowski'
p471
F0.9569377990430622
sS'profitable'
p472
F0.7655502392344498
sS'terrific'
p473
F0.7017543859649124
sS'illusions'
p474
F0.7496012759170654
sS'marrying'
p475
F1.38755980861244
sS'calibre'
p476
F0.8452950558213717
sS'jules'
p477
F1.0685805422647527
sS'clyde'
p478
F0.7496012759170654
sS'depravity'
p479
F0.7496012759170654
sS'pivotal'
p480
F0.7017543859649124
sS'niro'
p481
F0.8133971291866028
sS'swim'
p482
F0.8452950558213717
sS'complaint'
p483
F0.8931419457735247
sS'detract'
p484
F1.0685805422647527
sS'styled'
p485
F0.7496012759170654
sS'wings'
p486
F0.7336523125996809
sS'moody'
p487
F0.9569377990430622
sS'sensational'
p488
F0.9569377990430622
sS'inviting'
p489
F0.7017543859649124
sS'vibrant'
p490
F0.8931419457735247
sS'donny'
p491
F0.8452950558213717
sS'sanity'
p492
F0.8293460925039873
sS'yields'
p493
F0.7496012759170654
sS'leia'
p494
F0.7496012759170654
sS'recalls'
p495
F0.8293460925039873
sS'accessible'
p496
F1.0685805422647527
sS'attorney'
p497
F0.861244019138756
sS'pals'
p498
F1.164274322169059
sS'magnificent'
p499
F1.0685805422647527
sS'pierre'
p500
F0.8452950558213717
sS'strongest'
p501
F1.38755980861244
sS'novelist'
p502
F0.8452950558213717
sS'ourselves'
p503
F0.9569377990430622
sS'purple'
p504
F0.9569377990430622
sS'phenomenal'
p505
F0.7655502392344498
sS'traumatic'
p506
F0.7496012759170654
sS'pep'
p507
F0.7496012759170654
sS'filling'
p508
F0.7814992025518342
sS'legal'
p509
F0.7496012759170654
sS'religion'
p510
F0.8452950558213717
sS'costuming'
p511
F0.7496012759170654
sS'embodies'
p512
F0.7655502392344498
sS'claustrophobic'
p513
F0.8931419457735247
sS'anna'
p514
F0.7814992025518342
sS'severed'
p515
F0.8452950558213717
sS'metropolis'
p516
F1.0685805422647527
sS'meanings'
p517
F0.9569377990430622
sS'bold'
p518
F0.9090909090909091
sS'intimate'
p519
F0.8293460925039873
sS'continuing'
p520
F0.9569377990430622
sS'lightly'
p521
F0.7017543859649124
sS'subconscious'
p522
F0.9569377990430622
sS'poignant'
p523
F0.8133971291866028
sS'stereo'
p524
F0.7017543859649124
sS'innocence'
p525
F0.8771929824561403
sS'sixty'
p526
F0.7496012759170654
sS'memorable'
p527
F0.7496012759170654
sS'plug'
p528
F0.8452950558213717
sS'transcends'
p529
F0.7655502392344498
sS'lifestyle'
p530
F0.7017543859649124
sS'linger'
p531
F0.7655502392344498
sS'smartly'
p532
F0.7496012759170654
sS'discussed'
p533
F1.164274322169059
sS'mixes'
p534
F0.9569377990430622
sS'gump'
p535
F1.2759170653907497
sS'hatred'
p536
F1.4832535885167466
sS'youthful'
p537
F0.9569377990430622
sS'stakes'
p538
F0.7655502392344498
sS'virginity'
p539
F0.8452950558213717
sS'raised'
p540
F0.7177033492822966
sS'flawed'
p541
F0.6858054226475279
sS'hometown'
p542
F0.9569377990430622
sS'invading'
p543
F0.9569377990430622
sS'finely'
p544
F0.7655502392344498
sS'portrayal'
p545
F0.7336523125996809
sS'frightened'
p546
F0.6698564593301436
sS'intervention'
p547
F0.7496012759170654
sS'existed'
p548
F1.164274322169059
sS'uncontrollably'
p549
F0.8452950558213717
sS'platoon'
p550
F0.9569377990430622
sS'confident'
p551
F0.7017543859649124
sS'jinn'
p552
F0.9569377990430622
sS'literal'
p553
F0.6858054226475279
sS'stark'
p554
F1.0207336523125996
sS'imperial'
p555
F1.0685805422647527
sS'gig'
p556
F0.8452950558213717
sS'accountant'
p557
F0.8452950558213717
sS'heritage'
p558
F0.9569377990430622
sS'flynn'
p559
F0.8452950558213717
sS'wits'
p560
F0.9569377990430622
sS'wwii'
p561
F0.7496012759170654
sS'phenomena'
p562
F0.7017543859649124
sS'regard'
p563
F1.7065390749601277
sS'peers'
p564
F0.7017543859649124
sS'construction'
p565
F0.9569377990430622
sS'goals'
p566
F0.8133971291866028
sS'mice'
p567
F0.8452950558213717
sS'nutshell'
p568
F0.7496012759170654
sS'rejection'
p569
F0.8452950558213717
sS'embedded'
p570
F0.7496012759170654
sS'richly'
p571
F0.7496012759170654
sS'characteristic'
p572
F0.7336523125996809
sS'smooth'
p573
F1.8022328548644337
sS'nearest'
p574
F0.7496012759170654
sS'sadness'
p575
F0.6858054226475279
sS'mature'
p576
F0.8293460925039873
sS'horner'
p577
F0.7655502392344498
sS'demonstrate'
p578
F0.8931419457735247
sS'mcconaughey'
p579
F0.9090909090909091
sS'strands'
p580
F0.7496012759170654
sS'beliefs'
p581
F0.861244019138756
sS'darker'
p582
F0.9569377990430622
sS'detailed'
p583
F0.6858054226475279
sS'supreme'
p584
F1.0685805422647527
sS'ordered'
p585
F0.9569377990430622
sS'chad'
p586
F0.7496012759170654
sS'buffs'
p587
F0.8452950558213717
sS'likewise'
p588
F1.0685805422647527
sS'abstract'
p589
F0.8452950558213717
sS'contribute'
p590
F0.6858054226475279
sS'diverse'
p591
F0.6858054226475279
sS'goodness'
p592
F0.8293460925039873
sS'undertones'
p593
F0.7496012759170654
sS'shines'
p594
F0.7496012759170654
sS'hound'
p595
F0.9569377990430622
sS'bishop'
p596
F0.7496012759170654
sS'mutual'
p597
F0.7655502392344498
sS'na'
p598
F0.8931419457735247
sS'nc'
p599
F0.8133971291866028
sS'tossing'
p600
F0.7496012759170654
sS'republic'
p601
F0.9569377990430622
sS'holm'
p602
F0.7017543859649124
sS'gaining'
p603
F0.7655502392344498
sS'conveys'
p604
F1.4832535885167466
sS'oneself'
p605
F0.7496012759170654
sS'calculating'
p606
F0.7496012759170654
sS'smitten'
p607
F0.8452950558213717
sS'symbol'
p608
F0.7017543859649124
sS'gunplay'
p609
F0.9569377990430622
sS'astounding'
p610
F1.7065390749601277
sS'hawthorne'
p611
F1.0685805422647527
sS'variation'
p612
F0.6858054226475279
sS'frances'
p613
F1.164274322169059
sS'gifts'
p614
F0.7496012759170654
sS'tatooine'
p615
F0.9569377990430622
sS'devon'
p616
F0.7496012759170654
sS'dewey'
p617
F0.9569377990430622
sS'lang'
p618
F0.9569377990430622
sS'thematic'
p619
F1.2759170653907497
sS'thrust'
p620
F0.7814992025518342
sS'ranks'
p621
F0.6698564593301436
sS'ryder'
p622
F0.7017543859649124
sS'departments'
p623
F0.7496012759170654
sS'vietnam'
p624
F0.8133971291866028
sS'accidents'
p625
F0.7496012759170654
sS'transports'
p626
F0.7496012759170654
s.